; ModuleID = '3/1506.c'
source_filename = "3/1506.c"
target datalayout = "e-m:e-p270:32:32-p271:32:32-p272:64:64-i64:64-f80:128-n8:16:32:64-S128"
target triple = "x86_64-pc-linux-gnu"

@.str = private unnamed_addr constant [6 x i8] c"%d %d\00", align 1
@.str.1 = private unnamed_addr constant [3 x i8] c"%d\00", align 1
@.str.2 = private unnamed_addr constant [4 x i8] c"yes\00", align 1
@.str.3 = private unnamed_addr constant [3 x i8] c"no\00", align 1

; Function Attrs: noinline nounwind uwtable
define dso_local i32 @main(i32 %0, i8** %1) #0 {
  %3 = alloca i32, align 4
  %4 = alloca i32, align 4
  %5 = alloca i8**, align 8
  %6 = alloca i32, align 4
  %7 = alloca i32, align 4
  %8 = alloca i32, align 4
  %9 = alloca i32, align 4
  %10 = alloca [1000 x i32], align 16
  store i32 0, i32* %3, align 4
  store i32 %0, i32* %4, align 4
  store i8** %1, i8*** %5, align 8
  %11 = call i32 (i8*, ...) @__isoc99_scanf(i8* getelementptr inbounds ([6 x i8], [6 x i8]* @.str, i64 0, i64 0), i32* %8, i32* %9)
  store i32 0, i32* %6, align 4
  br label %12

12:                                               ; preds = %21, %2
  %13 = load i32, i32* %6, align 4
  %14 = load i32, i32* %8, align 4
  %15 = icmp slt i32 %13, %14
  br i1 %15, label %16, label %24

16:                                               ; preds = %12
  %17 = load i32, i32* %6, align 4
  %18 = sext i32 %17 to i64
  %19 = getelementptr inbounds [1000 x i32], [1000 x i32]* %10, i64 0, i64 %18
  %20 = call i32 (i8*, ...) @__isoc99_scanf(i8* getelementptr inbounds ([3 x i8], [3 x i8]* @.str.1, i64 0, i64 0), i32* %19)
  br label %21

21:                                               ; preds = %16
  %22 = load i32, i32* %6, align 4
  %23 = add nsw i32 %22, 1
  store i32 %23, i32* %6, align 4
  br label %12

24:                                               ; preds = %12
  store i32 0, i32* %6, align 4
  br label %25

25:                                               ; preds = %84, %24
  %26 = load i32, i32* %6, align 4
  %27 = load i32, i32* %8, align 4
  %28 = icmp slt i32 %26, %27
  br i1 %28, label %29, label %87

29:                                               ; preds = %25
  %30 = load i32, i32* %6, align 4
  %31 = sext i32 %30 to i64
  %32 = getelementptr inbounds [1000 x i32], [1000 x i32]* %10, i64 0, i64 %31
  %33 = load i32, i32* %32, align 4
  %34 = load i32, i32* %9, align 4
  %35 = icmp sgt i32 %33, %34
  br i1 %35, label %36, label %37

36:                                               ; preds = %29
  br label %84

37:                                               ; preds = %29
  %38 = load i32, i32* %6, align 4
  %39 = sext i32 %38 to i64
  %40 = getelementptr inbounds [1000 x i32], [1000 x i32]* %10, i64 0, i64 %39
  %41 = load i32, i32* %40, align 4
  %42 = load i32, i32* %9, align 4
  %43 = icmp sle i32 %41, %42
  br i1 %43, label %44, label %77

44:                                               ; preds = %37
  %45 = load i32, i32* %6, align 4
  %46 = add nsw i32 %45, 1
  store i32 %46, i32* %7, align 4
  br label %47

47:                                               ; preds = %73, %44
  %48 = load i32, i32* %7, align 4
  %49 = load i32, i32* %8, align 4
  %50 = icmp slt i32 %48, %49
  br i1 %50, label %51, label %76

51:                                               ; preds = %47
  %52 = load i32, i32* %7, align 4
  %53 = sext i32 %52 to i64
  %54 = getelementptr inbounds [1000 x i32], [1000 x i32]* %10, i64 0, i64 %53
  %55 = load i32, i32* %54, align 4
  %56 = load i32, i32* %9, align 4
  %57 = icmp sgt i32 %55, %56
  br i1 %57, label %58, label %59

58:                                               ; preds = %51
  br label %73

59:                                               ; preds = %51
  %60 = load i32, i32* %6, align 4
  %61 = sext i32 %60 to i64
  %62 = getelementptr inbounds [1000 x i32], [1000 x i32]* %10, i64 0, i64 %61
  %63 = load i32, i32* %62, align 4
  %64 = load i32, i32* %7, align 4
  %65 = sext i32 %64 to i64
  %66 = getelementptr inbounds [1000 x i32], [1000 x i32]* %10, i64 0, i64 %65
  %67 = load i32, i32* %66, align 4
  %68 = add nsw i32 %63, %67
  %69 = load i32, i32* %9, align 4
  %70 = icmp eq i32 %68, %69
  br i1 %70, label %71, label %72

71:                                               ; preds = %59
  br label %76

72:                                               ; preds = %59
  br label %73

73:                                               ; preds = %72, %58
  %74 = load i32, i32* %7, align 4
  %75 = add nsw i32 %74, 1
  store i32 %75, i32* %7, align 4
  br label %47

76:                                               ; preds = %71, %47
  br label %77

77:                                               ; preds = %76, %37
  %78 = load i32, i32* %7, align 4
  %79 = load i32, i32* %8, align 4
  %80 = icmp slt i32 %78, %79
  br i1 %80, label %81, label %83

81:                                               ; preds = %77
  %82 = call i32 (i8*, ...) @printf(i8* getelementptr inbounds ([4 x i8], [4 x i8]* @.str.2, i64 0, i64 0))
  br label %87

83:                                               ; preds = %77
  br label %84

84:                                               ; preds = %83, %36
  %85 = load i32, i32* %6, align 4
  %86 = add nsw i32 %85, 1
  store i32 %86, i32* %6, align 4
  br label %25

87:                                               ; preds = %81, %25
  %88 = load i32, i32* %6, align 4
  %89 = load i32, i32* %8, align 4
  %90 = icmp eq i32 %88, %89
  br i1 %90, label %91, label %93

91:                                               ; preds = %87
  %92 = call i32 (i8*, ...) @printf(i8* getelementptr inbounds ([3 x i8], [3 x i8]* @.str.3, i64 0, i64 0))
  br label %93

93:                                               ; preds = %91, %87
  ret i32 0
}

declare dso_local i32 @__isoc99_scanf(i8*, ...) #1

declare dso_local i32 @printf(i8*, ...) #1


!llvm.module.flags = !{!0}
!llvm.ident = !{!1}

!0 = !{i32 1, !"wchar_size", i32 4}
!1 = !{!"clang version 10.0.0-4ubuntu1 "}
