; ModuleID = 'source-C-CXX/2/1506.c'
source_filename = "source-C-CXX/2/1506.c"
target datalayout = "e-m:e-p270:32:32-p271:32:32-p272:64:64-i64:64-f80:128-n8:16:32:64-S128"
target triple = "x86_64-pc-linux-gnu"

@.str = private unnamed_addr constant [6 x i8] c"%d %d\00", align 1
@.str.1 = private unnamed_addr constant [3 x i8] c"%d\00", align 1
@.str.2 = private unnamed_addr constant [4 x i8] c"yes\00", align 1
@.str.3 = private unnamed_addr constant [3 x i8] c"no\00", align 1

; Function Attrs: nofree nounwind sspstrong uwtable
define dso_local i32 @main(i32 %0, i8** nocapture readnone %1) local_unnamed_addr #0 {
  %3 = alloca i32, align 4
  %4 = alloca i32, align 4
  %5 = alloca [1000 x i32], align 16
  %6 = bitcast i32* %3 to i8*
  call void @llvm.lifetime.start.p0i8(i64 4, i8* nonnull %6) #3
  %7 = bitcast i32* %4 to i8*
  call void @llvm.lifetime.start.p0i8(i64 4, i8* nonnull %7) #3
  %8 = bitcast [1000 x i32]* %5 to i8*
  call void @llvm.lifetime.start.p0i8(i64 4000, i8* nonnull %8) #3
  %9 = call i32 (i8*, ...) @__isoc99_scanf(i8* getelementptr inbounds ([6 x i8], [6 x i8]* @.str, i64 0, i64 0), i32* nonnull %3, i32* nonnull %4)
  %10 = load i32, i32* %3, align 4, !tbaa !5
  %11 = icmp sgt i32 %10, 0
  br i1 %11, label %18, label %49

12:                                               ; preds = %18
  %13 = load i32, i32* %4, align 4
  %14 = icmp sgt i32 %23, 0
  br i1 %14, label %15, label %49

15:                                               ; preds = %12
  %16 = zext i32 %23 to i64
  %17 = sext i32 %23 to i64
  br label %26

18:                                               ; preds = %2, %18
  %19 = phi i64 [ %22, %18 ], [ 0, %2 ]
  %20 = getelementptr inbounds [1000 x i32], [1000 x i32]* %5, i64 0, i64 %19
  %21 = call i32 (i8*, ...) @__isoc99_scanf(i8* getelementptr inbounds ([3 x i8], [3 x i8]* @.str.1, i64 0, i64 0), i32* nonnull %20)
  %22 = add nuw nsw i64 %19, 1
  %23 = load i32, i32* %3, align 4, !tbaa !5
  %24 = sext i32 %23 to i64
  %25 = icmp slt i64 %22, %24
  br i1 %25, label %18, label %12, !llvm.loop !9

26:                                               ; preds = %15, %46
  %27 = phi i64 [ 0, %15 ], [ %47, %46 ]
  %28 = getelementptr inbounds [1000 x i32], [1000 x i32]* %5, i64 0, i64 %27
  %29 = load i32, i32* %28, align 4, !tbaa !5
  %30 = icmp sgt i32 %29, %13
  br i1 %30, label %46, label %31

31:                                               ; preds = %26, %35
  %32 = phi i64 [ %33, %35 ], [ %27, %26 ]
  %33 = add nuw nsw i64 %32, 1
  %34 = icmp slt i64 %33, %17
  br i1 %34, label %35, label %46

35:                                               ; preds = %31
  %36 = getelementptr inbounds [1000 x i32], [1000 x i32]* %5, i64 0, i64 %33
  %37 = load i32, i32* %36, align 4, !tbaa !5
  %38 = icmp sle i32 %37, %13
  %39 = add nsw i32 %37, %29
  %40 = icmp eq i32 %39, %13
  %41 = select i1 %38, i1 %40, i1 false
  br i1 %41, label %42, label %31, !llvm.loop !11

42:                                               ; preds = %35
  %43 = trunc i64 %27 to i32
  %44 = call i32 (i8*, ...) @printf(i8* nonnull dereferenceable(1) getelementptr inbounds ([4 x i8], [4 x i8]* @.str.2, i64 0, i64 0))
  %45 = load i32, i32* %3, align 4, !tbaa !5
  br label %49

46:                                               ; preds = %31, %26
  %47 = add nuw nsw i64 %27, 1
  %48 = icmp eq i64 %47, %16
  br i1 %48, label %53, label %26, !llvm.loop !12

49:                                               ; preds = %2, %12, %42
  %50 = phi i32 [ %45, %42 ], [ %23, %12 ], [ %10, %2 ]
  %51 = phi i32 [ %43, %42 ], [ 0, %12 ], [ 0, %2 ]
  %52 = icmp eq i32 %51, %50
  br i1 %52, label %53, label %55

53:                                               ; preds = %46, %49
  %54 = call i32 (i8*, ...) @printf(i8* nonnull dereferenceable(1) getelementptr inbounds ([3 x i8], [3 x i8]* @.str.3, i64 0, i64 0))
  br label %55

55:                                               ; preds = %53, %49
  call void @llvm.lifetime.end.p0i8(i64 4000, i8* nonnull %8) #3
  call void @llvm.lifetime.end.p0i8(i64 4, i8* nonnull %7) #3
  call void @llvm.lifetime.end.p0i8(i64 4, i8* nonnull %6) #3
  ret i32 0
}

; Function Attrs: argmemonly mustprogress nofree nosync nounwind willreturn
declare void @llvm.lifetime.start.p0i8(i64 immarg, i8* nocapture) #1

; Function Attrs: nofree nounwind
declare noundef i32 @__isoc99_scanf(i8* nocapture noundef readonly, ...) local_unnamed_addr #2

; Function Attrs: nofree nounwind
declare noundef i32 @printf(i8* nocapture noundef readonly, ...) local_unnamed_addr #2

; Function Attrs: argmemonly mustprogress nofree nosync nounwind willreturn
declare void @llvm.lifetime.end.p0i8(i64 immarg, i8* nocapture) #1


!llvm.module.flags = !{!0, !1, !2, !3}
!llvm.ident = !{!4}

!0 = !{i32 1, !"wchar_size", i32 4}
!1 = !{i32 7, !"PIC Level", i32 2}
!2 = !{i32 7, !"PIE Level", i32 2}
!3 = !{i32 7, !"uwtable", i32 1}
!4 = !{!"clang version 13.0.0"}
!5 = !{!6, !6, i64 0}
!6 = !{!"int", !7, i64 0}
!7 = !{!"omnipotent char", !8, i64 0}
!8 = !{!"Simple C/C++ TBAA"}
!9 = distinct !{!9, !10}
!10 = !{!"llvm.loop.mustprogress"}
!11 = distinct !{!11, !10}
!12 = distinct !{!12, !10}
